target datalayout = "e-m:e-p270:32:32-p271:32:32-p272:64:64-i64:64-i128:128-f80:128-n8:16:32:64-S128"
target triple = "x86_64-pc-linux-gnu"

%struct.Gia_Man_t_ = type { ptr, ptr, i32, i32, i32, i32, ptr, ptr, i32, i32, i32, ptr, ptr, %struct.Vec_Int_t_, %struct.Vec_Int_t_, i32, i32, i32, %struct.Vec_Int_t_, ptr, ptr, ptr, i32, i32, i32, i32, ptr, ptr, ptr, ptr, ptr, i32, i32, ptr, i32, ptr, ptr, ptr, ptr, ptr, ptr, ptr, ptr, ptr, ptr, ptr, ptr, ptr, ptr, ptr, ptr, ptr, ptr, %struct.Vec_Int_t_, %struct.Vec_Int_t_, ptr, ptr, ptr, ptr, ptr, ptr, ptr, ptr, ptr, ptr, ptr, ptr, ptr, ptr, ptr, ptr, ptr, ptr, ptr, ptr, ptr, i32, float, float, ptr, ptr, i32, ptr, ptr, ptr, ptr, ptr, ptr, ptr, ptr, ptr, ptr, ptr, ptr, ptr, ptr, ptr, i64, i64, ptr, ptr, i32, i32, i32, i32, i32, i32, i32, i32, i32, i32, i32, i32, ptr, ptr, ptr, ptr, ptr, ptr, ptr, ptr, i32, i32, i32, ptr, i32, i32, ptr, ptr, ptr, ptr, ptr, ptr, i32, i32, ptr, %struct.Vec_Int_t_, %struct.Vec_Int_t_, %struct.Vec_Int_t_, ptr, ptr, ptr, i32, i32, i32, i32, ptr, ptr, ptr, ptr, ptr }
%struct.Vec_Int_t_ = type { i32, i32, ptr }

@.str.4 = private unnamed_addr constant [28 x i8] c"Domain %2d : %5d -> %5d :  \00", align 1
@.str.5 = private unnamed_addr constant [59 x i8] c"EqConst =%4d.  EqFlop =%4d.  Dangling =%4d.  Unused =%4d.\0A\00", align 1

; Function Attrs: inlinehint nounwind uwtable
define internal i32 @Abc_MaxInt(i32 noundef %0, i32 noundef %1) #2 {
  %3 = alloca i32, align 4
  %4 = alloca i32, align 4
  store i32 %0, ptr %3, align 4, !tbaa !33
  store i32 %1, ptr %4, align 4, !tbaa !33
  %5 = load i32, ptr %3, align 4, !tbaa !33
  %6 = load i32, ptr %4, align 4, !tbaa !33
  %7 = icmp sgt i32 %5, %6
  br i1 %7, label %8, label %10

8:                                                ; preds = %2
  %9 = load i32, ptr %3, align 4, !tbaa !33
  br label %12

10:                                               ; preds = %2
  %11 = load i32, ptr %4, align 4, !tbaa !33
  br label %12

12:                                               ; preds = %10, %8
  %13 = phi i32 [ %9, %8 ], [ %11, %10 ]
  ret i32 %13
}

; Function Attrs: nounwind uwtable
define void @Gia_ManFraigSweepPerform(ptr noundef %0, ptr noundef %1) #0 {
  %3 = alloca ptr, align 8
  %4 = alloca ptr, align 8
  %5 = alloca ptr, align 8
  store ptr %0, ptr %3, align 8, !tbaa !3
  store ptr %1, ptr %4, align 8, !tbaa !90
  call void @llvm.lifetime.start.p0(i64 8, ptr %5) #11
  %6 = load ptr, ptr %3, align 8, !tbaa !3
  %7 = call ptr @Gia_ManToAigSimple(ptr noundef %6)
  store ptr %7, ptr %5, align 8, !tbaa !91
  %8 = load ptr, ptr %5, align 8, !tbaa !91
  %9 = load ptr, ptr %4, align 8, !tbaa !90
  call void @Dch_ComputeEquivalences(ptr noundef %8, ptr noundef %9)
  %10 = load ptr, ptr %5, align 8, !tbaa !91
  %11 = load ptr, ptr %3, align 8, !tbaa !3
  call void @Gia_ManReprFromAigRepr(ptr noundef %10, ptr noundef %11)
  %12 = load ptr, ptr %5, align 8, !tbaa !91
  call void @Aig_ManStop(ptr noundef %12)
  call void @llvm.lifetime.end.p0(i64 8, ptr %5) #11
  ret void
}

; Function Attrs: inlinehint nounwind uwtable
define internal i32 @Vec_IntCountEntry(ptr noundef %0, i32 noundef %1) #2 {
  %3 = alloca ptr, align 8
  %4 = alloca i32, align 4
  %5 = alloca i32, align 4
  %6 = alloca i32, align 4
  store ptr %0, ptr %3, align 8, !tbaa !10
  store i32 %1, ptr %4, align 4, !tbaa !33
  call void @llvm.lifetime.start.p0(i64 4, ptr %5) #11
  call void @llvm.lifetime.start.p0(i64 4, ptr %6) #11
  store i32 0, ptr %6, align 4, !tbaa !33
  store i32 0, ptr %5, align 4, !tbaa !33
  br label %7

7:                                                ; preds = %26, %2
  %8 = load i32, ptr %5, align 4, !tbaa !33
  %9 = load ptr, ptr %3, align 8, !tbaa !10
  %10 = getelementptr inbounds nuw %struct.Vec_Int_t_, ptr %9, i32 0, i32 1
  %11 = load i32, ptr %10, align 4, !tbaa !42
  %12 = icmp slt i32 %8, %11
  br i1 %12, label %13, label %29

13:                                               ; preds = %7
  %14 = load ptr, ptr %3, align 8, !tbaa !10
  %15 = getelementptr inbounds nuw %struct.Vec_Int_t_, ptr %14, i32 0, i32 2
  %16 = load ptr, ptr %15, align 8, !tbaa !44
  %17 = load i32, ptr %5, align 4, !tbaa !33
  %18 = sext i32 %17 to i64
  %19 = getelementptr inbounds i32, ptr %16, i64 %18
  %20 = load i32, ptr %19, align 4, !tbaa !33
  %21 = load i32, ptr %4, align 4, !tbaa !33
  %22 = icmp eq i32 %20, %21
  %23 = zext i1 %22 to i32
  %24 = load i32, ptr %6, align 4, !tbaa !33
  %25 = add nsw i32 %24, %23
  store i32 %25, ptr %6, align 4, !tbaa !33
  br label %26

26:                                               ; preds = %13
  %27 = load i32, ptr %5, align 4, !tbaa !33
  %28 = add nsw i32 %27, 1
  store i32 %28, ptr %5, align 4, !tbaa !33
  br label %7, !llvm.loop !98

29:                                               ; preds = %7
  %30 = load i32, ptr %6, align 4, !tbaa !33
  call void @llvm.lifetime.end.p0(i64 4, ptr %6) #11
  call void @llvm.lifetime.end.p0(i64 4, ptr %5) #11
  ret i32 %30
}

; Function Attrs: nounwind uwtable
define ptr @Gia_ManSweepWithBoxes(ptr noundef %0, ptr noundef %1, ptr noundef %2, i32 noundef %3, i32 noundef %4, i32 noundef %5, i32 noundef %6) #0 {
  %8 = alloca ptr, align 8
  %9 = alloca ptr, align 8
  %10 = alloca ptr, align 8
  %11 = alloca ptr, align 8
  %12 = alloca i32, align 4
  %13 = alloca i32, align 4
  %14 = alloca i32, align 4
  %15 = alloca i32, align 4
  %16 = alloca ptr, align 8
  %17 = alloca ptr, align 8
  %18 = alloca ptr, align 8
  %19 = alloca ptr, align 8
  %20 = alloca [3 x i32], align 4
  %21 = alloca i32, align 4
  %22 = alloca i32, align 4
  %23 = alloca i32, align 4
  store ptr %0, ptr %9, align 8, !tbaa !3
  store ptr %1, ptr %10, align 8, !tbaa !90
  store ptr %2, ptr %11, align 8, !tbaa !90
  store i32 %3, ptr %12, align 4, !tbaa !33
  store i32 %4, ptr %13, align 4, !tbaa !33
  store i32 %5, ptr %14, align 4, !tbaa !33
  store i32 %6, ptr %15, align 4, !tbaa !33
  call void @llvm.lifetime.start.p0(i64 8, ptr %16) #11
  call void @llvm.lifetime.start.p0(i64 8, ptr %17) #11
  call void @llvm.lifetime.start.p0(i64 8, ptr %18) #11
  call void @llvm.lifetime.start.p0(i64 8, ptr %19) #11
  call void @llvm.lifetime.start.p0(i64 12, ptr %20) #11
  call void @llvm.memset.p0.i64(ptr align 4 %20, i8 0, i64 12, i1 false)
  call void @llvm.lifetime.start.p0(i64 4, ptr %21) #11
  call void @llvm.lifetime.start.p0(i64 4, ptr %22) #11
  %24 = load ptr, ptr %10, align 8, !tbaa !90
  %25 = icmp eq ptr %24, null
  br i1 %25, label %26, label %38

26:                                               ; preds = %7
  %27 = load ptr, ptr %9, align 8, !tbaa !3
  %28 = call i32 @Gia_ManClockDomainNum(ptr noundef %27)
  %29 = icmp sgt i32 %28, 1
  br i1 %29, label %30, label %38

30:                                               ; preds = %26
  %31 = load ptr, ptr %9, align 8, !tbaa !3
  %32 = load ptr, ptr %11, align 8, !tbaa !90
  %33 = load i32, ptr %12, align 4, !tbaa !33
  %34 = load i32, ptr %13, align 4, !tbaa !33
  %35 = load i32, ptr %14, align 4, !tbaa !33
  %36 = load i32, ptr %15, align 4, !tbaa !33
  %37 = call ptr @Gia_ManSweepWithBoxesAndDomains(ptr noundef %31, ptr noundef %32, i32 noundef %33, i32 noundef %34, i32 noundef %35, i32 noundef %36)
  store ptr %37, ptr %8, align 8
  store i32 1, ptr %23, align 4
  br label %143

38:                                               ; preds = %26, %7
  %39 = load ptr, ptr %9, align 8, !tbaa !3
  %40 = call ptr @Gia_ManDupUnnormalize(ptr noundef %39)
  store ptr %40, ptr %17, align 8, !tbaa !3
  %41 = load ptr, ptr %17, align 8, !tbaa !3
  %42 = icmp eq ptr %41, null
  br i1 %42, label %43, label %44

43:                                               ; preds = %38
  store ptr null, ptr %8, align 8
  store i32 1, ptr %23, align 4
  br label %143

44:                                               ; preds = %38
  %45 = load ptr, ptr %17, align 8, !tbaa !3
  %46 = load ptr, ptr %9, align 8, !tbaa !3
  call void @Gia_ManTransferTiming(ptr noundef %45, ptr noundef %46)
  %47 = load ptr, ptr %17, align 8, !tbaa !3
  %48 = getelementptr inbounds nuw %struct.Gia_Man_t_, ptr %47, i32 0, i32 61
  %49 = load ptr, ptr %48, align 8, !tbaa !56
  %50 = call i32 @Vec_IntCountEntry(ptr noundef %49, i32 noundef 1)
  store i32 %50, ptr %22, align 4, !tbaa !33
  %51 = load ptr, ptr %17, align 8, !tbaa !3
  %52 = load ptr, ptr %17, align 8, !tbaa !3
  %53 = getelementptr inbounds nuw %struct.Gia_Man_t_, ptr %52, i32 0, i32 68
  %54 = load ptr, ptr %53, align 8, !tbaa !62
  %55 = load ptr, ptr %10, align 8, !tbaa !90
  %56 = icmp ne ptr %55, null
  %57 = select i1 %56, i32 0, i32 1
  %58 = call ptr @Gia_ManDupCollapse(ptr noundef %51, ptr noundef %54, ptr noundef null, i32 noundef %57)
  store ptr %58, ptr %16, align 8, !tbaa !3
  %59 = load ptr, ptr %10, align 8, !tbaa !90
  %60 = icmp ne ptr %59, null
  br i1 %60, label %61, label %64

61:                                               ; preds = %44
  %62 = load ptr, ptr %16, align 8, !tbaa !3
  %63 = load ptr, ptr %10, align 8, !tbaa !90
  call void @Gia_ManFraigSweepPerform(ptr noundef %62, ptr noundef %63)
  br label %77

64:                                               ; preds = %44
  %65 = load ptr, ptr %11, align 8, !tbaa !90
  %66 = icmp ne ptr %65, null
  br i1 %66, label %67, label %71

67:                                               ; preds = %64
  %68 = load ptr, ptr %16, align 8, !tbaa !3
  %69 = load ptr, ptr %11, align 8, !tbaa !90
  %70 = call i32 @Cec_ManLSCorrespondenceClasses(ptr noundef %68, ptr noundef %69)
  br label %76

71:                                               ; preds = %64
  %72 = load ptr, ptr %16, align 8, !tbaa !3
  %73 = load i32, ptr %12, align 4, !tbaa !33
  %74 = load i32, ptr %13, align 4, !tbaa !33
  %75 = load i32, ptr %14, align 4, !tbaa !33
  call void @Gia_ManSeqCleanupClasses(ptr noundef %72, i32 noundef %73, i32 noundef %74, i32 noundef %75)
  br label %76

76:                                               ; preds = %71, %67
  br label %77

77:                                               ; preds = %76, %61
  %78 = load ptr, ptr %17, align 8, !tbaa !3
  %79 = load ptr, ptr %16, align 8, !tbaa !3
  %80 = load i32, ptr %14, align 4, !tbaa !33
  %81 = getelementptr inbounds [3 x i32], ptr %20, i64 0, i64 0
  %82 = call ptr @Gia_ManFraigSelectReprs(ptr noundef %78, ptr noundef %79, i32 noundef %80, ptr noundef %81)
  store ptr %82, ptr %19, align 8, !tbaa !77
  %83 = load ptr, ptr %16, align 8, !tbaa !3
  call void @Gia_ManStop(ptr noundef %83)
  %84 = load ptr, ptr %9, align 8, !tbaa !3
  %85 = load ptr, ptr %17, align 8, !tbaa !3
  call void @Gia_ManTransferTiming(ptr noundef %84, ptr noundef %85)
  %86 = load ptr, ptr %17, align 8, !tbaa !3
  store ptr %86, ptr %18, align 8, !tbaa !3
  %87 = load ptr, ptr %19, align 8, !tbaa !77
  %88 = call ptr @Gia_ManFraigReduceGia(ptr noundef %86, ptr noundef %87)
  store ptr %88, ptr %17, align 8, !tbaa !3
  %89 = load ptr, ptr %17, align 8, !tbaa !3
  %90 = load ptr, ptr %9, align 8, !tbaa !3
  call void @Gia_ManTransferTiming(ptr noundef %89, ptr noundef %90)
  %91 = load ptr, ptr %18, align 8, !tbaa !3
  call void @Gia_ManStop(ptr noundef %91)
  %92 = load ptr, ptr %19, align 8, !tbaa !77
  %93 = icmp ne ptr %92, null
  br i1 %93, label %94, label %96

94:                                               ; preds = %77
  %95 = load ptr, ptr %19, align 8, !tbaa !77
  call void @free(ptr noundef %95) #11
  store ptr null, ptr %19, align 8, !tbaa !77
  br label %97

96:                                               ; preds = %77
  br label %97

97:                                               ; preds = %96, %94
  %98 = load ptr, ptr %17, align 8, !tbaa !3
  store ptr %98, ptr %18, align 8, !tbaa !3
  %99 = load ptr, ptr %10, align 8, !tbaa !90
  %100 = icmp ne ptr %99, null
  %101 = select i1 %100, i32 0, i32 1
  %102 = call ptr @Gia_ManDupWithBoxes(ptr noundef %98, i32 noundef %101)
  store ptr %102, ptr %17, align 8, !tbaa !3
  %103 = load ptr, ptr %18, align 8, !tbaa !3
  call void @Gia_ManStop(ptr noundef %103)
  %104 = load ptr, ptr %17, align 8, !tbaa !3
  %105 = getelementptr inbounds nuw %struct.Gia_Man_t_, ptr %104, i32 0, i32 61
  %106 = load ptr, ptr %105, align 8, !tbaa !56
  %107 = call i32 @Vec_IntCountEntry(ptr noundef %106, i32 noundef 1)
  store i32 %107, ptr %21, align 4, !tbaa !33
  %108 = load i32, ptr %22, align 4, !tbaa !33
  %109 = load i32, ptr %21, align 4, !tbaa !33
  %110 = sub nsw i32 %108, %109
  %111 = getelementptr inbounds [3 x i32], ptr %20, i64 0, i64 0
  %112 = load i32, ptr %111, align 4, !tbaa !33
  %113 = getelementptr inbounds [3 x i32], ptr %20, i64 0, i64 1
  %114 = load i32, ptr %113, align 4, !tbaa !33
  %115 = add nsw i32 %112, %114
  %116 = sub nsw i32 %110, %115
  %117 = getelementptr inbounds [3 x i32], ptr %20, i64 0, i64 2
  store i32 %116, ptr %117, align 4, !tbaa !33
  %118 = load i32, ptr %15, align 4, !tbaa !33
  %119 = icmp ne i32 %118, 0
  br i1 %119, label %120, label %136

120:                                              ; preds = %97
  %121 = load i32, ptr %22, align 4, !tbaa !33
  %122 = load i32, ptr %21, align 4, !tbaa !33
  %123 = call i32 (ptr, ...) @printf(ptr noundef @.str.4, i32 noundef 1, i32 noundef %121, i32 noundef %122)
  %124 = getelementptr inbounds [3 x i32], ptr %20, i64 0, i64 0
  %125 = load i32, ptr %124, align 4, !tbaa !33
  %126 = getelementptr inbounds [3 x i32], ptr %20, i64 0, i64 1
  %127 = load i32, ptr %126, align 4, !tbaa !33
  %128 = getelementptr inbounds [3 x i32], ptr %20, i64 0, i64 2
  %129 = load i32, ptr %128, align 4, !tbaa !33
  %130 = call i32 @Abc_MaxInt(i32 noundef 0, i32 noundef %129)
  %131 = getelementptr inbounds [3 x i32], ptr %20, i64 0, i64 2
  %132 = load i32, ptr %131, align 4, !tbaa !33
  %133 = sub nsw i32 0, %132
  %134 = call i32 @Abc_MaxInt(i32 noundef 0, i32 noundef %133)
  %135 = call i32 (ptr, ...) @printf(ptr noundef @.str.5, i32 noundef %125, i32 noundef %127, i32 noundef %130, i32 noundef %134)
  br label %136

136:                                              ; preds = %120, %97
  %137 = load ptr, ptr %17, align 8, !tbaa !3
  store ptr %137, ptr %18, align 8, !tbaa !3
  %138 = call ptr @Gia_ManDupNormalize(ptr noundef %137, i32 noundef 0)
  store ptr %138, ptr %17, align 8, !tbaa !3
  %139 = load ptr, ptr %17, align 8, !tbaa !3
  %140 = load ptr, ptr %18, align 8, !tbaa !3
  call void @Gia_ManTransferTiming(ptr noundef %139, ptr noundef %140)
  %141 = load ptr, ptr %18, align 8, !tbaa !3
  call void @Gia_ManStop(ptr noundef %141)
  %142 = load ptr, ptr %17, align 8, !tbaa !3
  store ptr %142, ptr %8, align 8
  store i32 1, ptr %23, align 4
  br label %143

143:                                              ; preds = %136, %43, %30
  call void @llvm.lifetime.end.p0(i64 4, ptr %22) #11
  call void @llvm.lifetime.end.p0(i64 4, ptr %21) #11
  call void @llvm.lifetime.end.p0(i64 12, ptr %20) #11
  call void @llvm.lifetime.end.p0(i64 8, ptr %19) #11
  call void @llvm.lifetime.end.p0(i64 8, ptr %18) #11
  call void @llvm.lifetime.end.p0(i64 8, ptr %17) #11
  call void @llvm.lifetime.end.p0(i64 8, ptr %16) #11
  %144 = load ptr, ptr %8, align 8
  ret ptr %144
}