; Function Attrs: nounwind uwtable
define noundef ptr @Gia_ManSweepWithBoxes(ptr noundef %0, ptr noundef %1, ptr noundef %2, i32 noundef %3, i32 noundef %4, i32 noundef %5, i32 noundef %6) local_unnamed_addr #0 {
  %8 = alloca [3 x i32], align 4
  call void @llvm.lifetime.start.p0(i64 12, ptr nonnull %8) #19
  call void @llvm.memset.p0.i64(ptr noundef nonnull align 4 dereferenceable(12) %8, i8 0, i64 12, i1 false)
  %9 = icmp eq ptr %1, null
  br i1 %9, label %10, label %15

10:                                               ; preds = %7
  %11 = tail call i32 @Gia_ManClockDomainNum(ptr noundef %0) #19
  %12 = icmp sgt i32 %11, 1
  br i1 %12, label %13, label %15

13:                                               ; preds = %10
  %14 = tail call ptr @Gia_ManSweepWithBoxesAndDomains(ptr noundef %0, ptr noundef %2, i32 noundef %3, i32 noundef %4, i32 noundef %5, i32 noundef %6)
  br label %75

15:                                               ; preds = %10, %7
  %16 = tail call ptr @Gia_ManDupUnnormalize(ptr noundef %0) #19
  %17 = icmp eq ptr %16, null
  br i1 %17, label %75, label %18

18:                                               ; preds = %15
  tail call void @Gia_ManTransferTiming(ptr noundef nonnull %16, ptr noundef %0) #19
  %19 = getelementptr inbounds nuw i8, ptr %16, i64 472
  %20 = load ptr, ptr %19, align 8, !tbaa !51
  %21 = getelementptr inbounds nuw i8, ptr %20, i64 4
  %22 = load i32, ptr %21, align 4, !tbaa !34
  %23 = icmp sgt i32 %22, 0
  br i1 %23, label %.lr.ph.i, label %Vec_IntCountEntry.exit

.lr.ph.i:                                         ; preds = %18
  %24 = getelementptr inbounds nuw i8, ptr %20, i64 8
  %25 = load ptr, ptr %24, align 8, !tbaa !35
  %wide.trip.count.i = zext nneg i32 %22 to i64
  br label %26

26:                                               ; preds = %26, %.lr.ph.i
  %indvars.iv.i = phi i64 [ 0, %.lr.ph.i ], [ %indvars.iv.next.i, %26 ]
  %.09.i = phi i32 [ 0, %.lr.ph.i ], [ %31, %26 ]
  %27 = getelementptr inbounds nuw i32, ptr %25, i64 %indvars.iv.i
  %28 = load i32, ptr %27, align 4, !tbaa !29
  %29 = icmp eq i32 %28, 1
  %30 = zext i1 %29 to i32
  %31 = add nuw nsw i32 %.09.i, %30
  %indvars.iv.next.i = add nuw nsw i64 %indvars.iv.i, 1
  %exitcond.not.i = icmp eq i64 %indvars.iv.next.i, %wide.trip.count.i
  br i1 %exitcond.not.i, label %Vec_IntCountEntry.exit, label %26, !llvm.loop !87

Vec_IntCountEntry.exit:                           ; preds = %26, %18
  %.0.lcssa.i = phi i32 [ 0, %18 ], [ %31, %26 ]
  %32 = getelementptr inbounds nuw i8, ptr %16, i64 528
  %33 = load ptr, ptr %32, align 8, !tbaa !57
  %34 = zext i1 %9 to i32
  %35 = tail call ptr @Gia_ManDupCollapse(ptr noundef nonnull %16, ptr noundef %33, ptr noundef null, i32 noundef %34) #19
  br i1 %9, label %38, label %36

36:                                               ; preds = %Vec_IntCountEntry.exit
  %37 = tail call ptr @Gia_ManToAigSimple(ptr noundef %35) #19
  tail call void @Dch_ComputeEquivalences(ptr noundef %37, ptr noundef nonnull %1) #19
  tail call void @Gia_ManReprFromAigRepr(ptr noundef %37, ptr noundef %35) #19
  tail call void @Aig_ManStop(ptr noundef %37) #19
  br label %42

38:                                               ; preds = %Vec_IntCountEntry.exit
  %.not57 = icmp eq ptr %2, null
  br i1 %.not57, label %41, label %39

39:                                               ; preds = %38
  %40 = tail call i32 @Cec_ManLSCorrespondenceClasses(ptr noundef %35, ptr noundef nonnull %2) #19
  br label %42

41:                                               ; preds = %38
  tail call void @Gia_ManSeqCleanupClasses(ptr noundef %35, i32 noundef %3, i32 noundef %4, i32 noundef %5) #19
  br label %42

42:                                               ; preds = %39, %41, %36
  %43 = call ptr @Gia_ManFraigSelectReprs(ptr noundef nonnull %16, ptr noundef %35, i32 noundef %5, ptr noundef nonnull %8)
  tail call void @Gia_ManStop(ptr noundef %35) #19
  tail call void @Gia_ManTransferTiming(ptr noundef %0, ptr noundef nonnull %16) #19
  %44 = tail call ptr @Gia_ManFraigReduceGia(ptr noundef nonnull %16, ptr noundef %43)
  tail call void @Gia_ManTransferTiming(ptr noundef %44, ptr noundef %0) #19
  tail call void @Gia_ManStop(ptr noundef nonnull %16) #19
  %.not58 = icmp eq ptr %43, null
  br i1 %.not58, label %46, label %45

45:                                               ; preds = %42
  tail call void @free(ptr noundef nonnull %43) #19
  br label %46

46:                                               ; preds = %42, %45
  %47 = tail call ptr @Gia_ManDupWithBoxes(ptr noundef %44, i32 noundef %34)
  tail call void @Gia_ManStop(ptr noundef %44) #19
  %48 = getelementptr inbounds nuw i8, ptr %47, i64 472
  %49 = load ptr, ptr %48, align 8, !tbaa !51
  %50 = getelementptr inbounds nuw i8, ptr %49, i64 4
  %51 = load i32, ptr %50, align 4, !tbaa !34
  %52 = icmp sgt i32 %51, 0
  br i1 %52, label %.lr.ph.i61, label %Vec_IntCountEntry.exit67

.lr.ph.i61:                                       ; preds = %46
  %53 = getelementptr inbounds nuw i8, ptr %49, i64 8
  %54 = load ptr, ptr %53, align 8, !tbaa !35
  %wide.trip.count.i62 = zext nneg i32 %51 to i64
  br label %55

55:                                               ; preds = %55, %.lr.ph.i61
  %indvars.iv.i63 = phi i64 [ 0, %.lr.ph.i61 ], [ %indvars.iv.next.i65, %55 ]
  %.09.i64 = phi i32 [ 0, %.lr.ph.i61 ], [ %60, %55 ]
  %56 = getelementptr inbounds nuw i32, ptr %54, i64 %indvars.iv.i63
  %57 = load i32, ptr %56, align 4, !tbaa !29
  %58 = icmp eq i32 %57, 1
  %59 = zext i1 %58 to i32
  %60 = add nuw nsw i32 %.09.i64, %59
  %indvars.iv.next.i65 = add nuw nsw i64 %indvars.iv.i63, 1
  %exitcond.not.i66 = icmp eq i64 %indvars.iv.next.i65, %wide.trip.count.i62
  br i1 %exitcond.not.i66, label %Vec_IntCountEntry.exit67, label %55, !llvm.loop !87

Vec_IntCountEntry.exit67:                         ; preds = %55, %46
  %.0.lcssa.i60 = phi i32 [ 0, %46 ], [ %60, %55 ]
  %.not59 = icmp eq i32 %6, 0
  br i1 %.not59, label %73, label %61

61:                                               ; preds = %Vec_IntCountEntry.exit67
  %62 = load i32, ptr %8, align 4, !tbaa !29
  %63 = add i32 %.0.lcssa.i60, %62
  %64 = getelementptr inbounds nuw i8, ptr %8, i64 4
  %65 = load i32, ptr %64, align 4, !tbaa !29
  %66 = add i32 %63, %65
  %67 = sub i32 %.0.lcssa.i, %66
  %68 = tail call i32 (ptr, ...) @printf(ptr noundef nonnull dereferenceable(1) @.str.4, i32 noundef 1, i32 noundef %.0.lcssa.i, i32 noundef %.0.lcssa.i60)
  %69 = tail call noundef range(i32 0, -2147483648) i32 @llvm.smax.i32(i32 %67, i32 0)
  %70 = sub nsw i32 0, %67
  %71 = tail call noundef range(i32 0, -2147483648) i32 @llvm.smax.i32(i32 %70, i32 0)
  %72 = tail call i32 (ptr, ...) @printf(ptr noundef nonnull dereferenceable(1) @.str.5, i32 noundef %62, i32 noundef %65, i32 noundef %69, i32 noundef %71)
  br label %73

73:                                               ; preds = %61, %Vec_IntCountEntry.exit67
  %74 = tail call ptr @Gia_ManDupNormalize(ptr noundef %47, i32 noundef 0) #19
  tail call void @Gia_ManTransferTiming(ptr noundef %74, ptr noundef %47) #19
  tail call void @Gia_ManStop(ptr noundef %47) #19
  br label %75

75:                                               ; preds = %15, %73, %13
  %.0 = phi ptr [ %14, %13 ], [ %74, %73 ], [ null, %15 ]
  call void @llvm.lifetime.end.p0(i64 12, ptr nonnull %8) #19
  ret ptr %.0
}